; Function Attrs: nounwind uwtable
define i32 @Gia_ManSimulateBatch(ptr noundef captures(none) initializes((816, 820)) %0, ptr noundef readonly captures(none) %1, ptr noundef captures(none) %2, ptr noundef readonly captures(none) %3, i32 noundef %4, i32 noundef %5) local_unnamed_addr #0 {
  %7 = alloca [10 x ptr], align 16
  call void @llvm.lifetime.start.p0(i64 80, ptr nonnull %7) #21
  %8 = tail call i32 @Gia_ManSimulateWordsInit(ptr noundef %0, ptr noundef %1)
  %9 = getelementptr inbounds nuw i8, ptr %0, i64 72
  %10 = load ptr, ptr %9, align 8, !tbaa !45
  %11 = getelementptr i8, ptr %10, i64 4
  %.val = load i32, ptr %11, align 4, !tbaa !41
  %12 = icmp sgt i32 %.val, 0
  br i1 %12, label %.lr.ph, label %.critedge

.lr.ph:                                           ; preds = %6
  %13 = getelementptr i8, ptr %0, i64 32
  %.val35 = load ptr, ptr %13, align 8, !tbaa !42
  %.not = icmp eq ptr %.val35, null
  br i1 %.not, label %.critedge, label %.lr.ph.split

.lr.ph.split:                                     ; preds = %.lr.ph
  %14 = getelementptr i8, ptr %0, i64 832
  %15 = getelementptr i8, ptr %0, i64 816
  %16 = getelementptr i8, ptr %10, i64 8
  %.val36.val = load ptr, ptr %16, align 8, !tbaa !44
  %.val33 = load i32, ptr %15, align 8, !tbaa !57
  %.val34 = load ptr, ptr %14, align 8, !tbaa !56
  %17 = getelementptr i8, ptr %.val34, i64 8
  %.val34.val = load ptr, ptr %17, align 8, !tbaa !13
  %wide.trip.count = zext nneg i32 %.val to i64
  br label %18

18:                                               ; preds = %.lr.ph.split, %18
  %indvars.iv = phi i64 [ 0, %.lr.ph.split ], [ %indvars.iv.next, %18 ]
  %19 = getelementptr inbounds nuw i32, ptr %.val36.val, i64 %indvars.iv
  %20 = load i32, ptr %19, align 4, !tbaa !19
  %21 = mul nsw i32 %.val33, %20
  %22 = sext i32 %21 to i64
  %23 = getelementptr inbounds i64, ptr %.val34.val, i64 %22
  %24 = getelementptr inbounds nuw [10 x ptr], ptr %7, i64 0, i64 %indvars.iv
  store ptr %23, ptr %24, align 8, !tbaa !94
  %indvars.iv.next = add nuw nsw i64 %indvars.iv, 1
  %exitcond.not = icmp eq i64 %indvars.iv.next, %wide.trip.count
  br i1 %exitcond.not, label %.critedge, label %18, !llvm.loop !98

.critedge:                                        ; preds = %18, %.lr.ph, %6
  %25 = icmp sgt i32 %5, 0
  br i1 %25, label %.preheader.lr.ph, label %._crit_edge

.preheader.lr.ph:                                 ; preds = %.critedge
  %26 = getelementptr inbounds nuw i8, ptr %2, i64 4
  %.phi.trans.insert.i = getelementptr inbounds nuw i8, ptr %2, i64 8
  %27 = shl nsw i32 %4, 6
  %28 = getelementptr i8, ptr %3, i64 8
  %29 = sext i32 %27 to i64
  %wide.trip.count50 = zext nneg i32 %5 to i64
  br label %.preheader

.preheader:                                       ; preds = %.preheader.lr.ph, %Vec_StrPush.exit
  %indvars.iv47 = phi i64 [ 0, %.preheader.lr.ph ], [ %indvars.iv.next48, %Vec_StrPush.exit ]
  %.02641 = phi i32 [ 0, %.preheader.lr.ph ], [ %76, %Vec_StrPush.exit ]
  %30 = lshr i64 %indvars.iv47, 6
  %31 = and i64 %30, 67108863
  %32 = and i64 %indvars.iv47, 63
  %33 = shl nuw i64 1, %32
  br label %34

34:                                               ; preds = %.preheader, %40
  %indvars.iv43 = phi i64 [ 0, %.preheader ], [ %indvars.iv.next44, %40 ]
  %35 = getelementptr inbounds nuw [10 x ptr], ptr %7, i64 0, i64 %indvars.iv43
  %36 = load ptr, ptr %35, align 8, !tbaa !94
  %37 = getelementptr inbounds nuw i64, ptr %36, i64 %31
  %38 = load i64, ptr %37, align 8, !tbaa !16
  %39 = and i64 %38, %33
  %.not30 = icmp eq i64 %39, 0
  br i1 %.not30, label %40, label %.split.loop.exit

40:                                               ; preds = %34
  %indvars.iv.next44 = add nuw nsw i64 %indvars.iv43, 1
  %exitcond46.not = icmp eq i64 %indvars.iv.next44, 10
  br i1 %exitcond46.not, label %.split.loop.exit52, label %34, !llvm.loop !99

.split.loop.exit:                                 ; preds = %34
  %41 = trunc nuw nsw i64 %indvars.iv43 to i32
  br label %.split.loop.exit52

.split.loop.exit52:                               ; preds = %40, %.split.loop.exit
  %.0 = phi i32 [ %41, %.split.loop.exit ], [ 0, %40 ]
  %42 = trunc nuw i32 %.0 to i8
  %43 = load i32, ptr %26, align 4, !tbaa !51
  %44 = load i32, ptr %2, align 8, !tbaa !52
  %45 = icmp eq i32 %43, %44
  br i1 %45, label %46, label %.Vec_StrGrow.exit10_crit_edge.i

.Vec_StrGrow.exit10_crit_edge.i:                  ; preds = %.split.loop.exit52
  %.pre.i = load ptr, ptr %.phi.trans.insert.i, align 8, !tbaa !5
  br label %Vec_StrPush.exit

46:                                               ; preds = %.split.loop.exit52
  %47 = icmp slt i32 %43, 16
  br i1 %47, label %48, label %55

48:                                               ; preds = %46
  %49 = load ptr, ptr %.phi.trans.insert.i, align 8, !tbaa !5
  %.not9.i.i = icmp eq ptr %49, null
  br i1 %.not9.i.i, label %52, label %50

50:                                               ; preds = %48
  %51 = tail call dereferenceable_or_null(16) ptr @realloc(ptr noundef nonnull %49, i64 noundef 16) #22
  br label %Vec_StrGrow.exit.i

52:                                               ; preds = %48
  %53 = tail call noalias dereferenceable_or_null(16) ptr @malloc(i64 noundef 16) #23
  br label %Vec_StrGrow.exit.i

Vec_StrGrow.exit.i:                               ; preds = %52, %50
  %54 = phi ptr [ %51, %50 ], [ %53, %52 ]
  store ptr %54, ptr %.phi.trans.insert.i, align 8, !tbaa !5
  store i32 16, ptr %2, align 8, !tbaa !52
  br label %Vec_StrPush.exit

55:                                               ; preds = %46
  %56 = shl nuw nsw i32 %43, 1
  %57 = load ptr, ptr %.phi.trans.insert.i, align 8, !tbaa !5
  %.not9.i9.i = icmp eq ptr %57, null
  %58 = zext nneg i32 %56 to i64
  br i1 %.not9.i9.i, label %61, label %59

59:                                               ; preds = %55
  %60 = tail call ptr @realloc(ptr noundef nonnull %57, i64 noundef %58) #22
  br label %63

61:                                               ; preds = %55
  %62 = tail call noalias ptr @malloc(i64 noundef %58) #23
  br label %63

63:                                               ; preds = %61, %59
  %64 = phi ptr [ %60, %59 ], [ %62, %61 ]
  store ptr %64, ptr %.phi.trans.insert.i, align 8, !tbaa !5
  store i32 %56, ptr %2, align 8, !tbaa !52
  br label %Vec_StrPush.exit

Vec_StrPush.exit:                                 ; preds = %.Vec_StrGrow.exit10_crit_edge.i, %Vec_StrGrow.exit.i, %63
  %65 = phi ptr [ %.pre.i, %.Vec_StrGrow.exit10_crit_edge.i ], [ %64, %63 ], [ %54, %Vec_StrGrow.exit.i ]
  %66 = load i32, ptr %26, align 4, !tbaa !51
  %67 = add nsw i32 %66, 1
  store i32 %67, ptr %26, align 4, !tbaa !51
  %68 = sext i32 %66 to i64
  %69 = getelementptr inbounds i8, ptr %65, i64 %68
  store i8 %42, ptr %69, align 1, !tbaa !12
  %.val32 = load ptr, ptr %28, align 8, !tbaa !5
  %70 = getelementptr i8, ptr %.val32, i64 %indvars.iv47
  %71 = getelementptr i8, ptr %70, i64 %29
  %72 = load i8, ptr %71, align 1, !tbaa !12
  %73 = sext i8 %72 to i32
  %74 = icmp eq i32 %.0, %73
  %75 = zext i1 %74 to i32
  %76 = add nuw nsw i32 %.02641, %75
  %indvars.iv.next48 = add nuw nsw i64 %indvars.iv47, 1
  %exitcond51.not = icmp eq i64 %indvars.iv.next48, %wide.trip.count50
  br i1 %exitcond51.not, label %._crit_edge, label %.preheader, !llvm.loop !100

._crit_edge:                                      ; preds = %Vec_StrPush.exit, %.critedge
  %.026.lcssa = phi i32 [ 0, %.critedge ], [ %76, %Vec_StrPush.exit ]
  call void @llvm.lifetime.end.p0(i64 80, ptr nonnull %7) #21
  ret i32 %.026.lcssa
}